Certificate:
    Data:
        Version: 3 (0x2)
        Serial Number: 286 (0x11e)
    Signature Algorithm: sha1WithRSAEncryption
        Issuer: C=cn, ST=test, L=test, O=test, OU=test, CN=test/emailAddress=test@test.test
        Validity
            Not Before: Oct  5 14:08:20 2012 GMT
            Not After : Oct  5 14:08:20 2013 GMT
        Subject: C=cn, ST=test, O=test, OU=test, CN=test/emailAddress=test@test.test
        Subject Public Key Info:
            Public Key Algorithm: rsaEncryption
                Public-Key: (1024 bit)
                Modulus:
                    00:c1:ed:dc:9b:cb:d9:61:bf:2a:c4:f5:5c:38:42:
                    36:df:26:2f:01:7e:6d:b7:62:ca:52:93:be:b3:1f:
                    c5:fa:5b:9d:89:b6:07:10:7e:f0:dc:d3:60:46:ae:
                    2f:18:93:0b:d9:a2:f5:35:97:62:5f:60:91:5f:0b:
                    d4:26:ce:7c:21:64:fb:1e:80:1a:df:79:5d:7a:42:
                    9d:c4:58:81:d5:65:00:88:f9:eb:b6:bd:27:27:0e:
                    99:7f:be:e5:1f:bc:61:f7:f9:53:78:59:dd:02:c2:
                    d6:b3:63:12:30:fb:c4:d5:a8:80:e1:77:c4:76:80:
                    0f:8e:42:40:64:fb:f8:90:0f
                Exponent: 65537 (0x10001)
        X509v3 extensions:
            X509v3 Basic Constraints: 
                CA:FALSE
            Netscape Comment: 
                OpenSSL Generated Certificate
            X509v3 Subject Key Identifier: 
                C6:00:D5:4C:83:31:E4:E9:D3:E4:A2:8D:8C:A2:37:28:CA:99:24:29
            X509v3 Authority Key Identifier: 
                keyid:E4:48:9C:D4:35:E3:58:07:DD:BA:CE:C1:D9:DB:0F:49:BB:FD:02:18

    Signature Algorithm: sha1WithRSAEncryption
         87:3b:1d:6a:5f:8a:3d:29:89:f5:24:07:a7:04:83:02:db:85:
         c8:fd:a5:ab:79:92:f5:b3:cc:06:aa:b4:e9:b8:a0:c8:8a:48:
         9d:1d:d5:e1:71:bd:16:42:fd:80:0f:9d:f9:4a:c1:04:84:ae:
         75:28:d0:9d:f7:f7:30:7e:7d:97:f4:1d:87:6c:06:e0:07:af:
         ea:36:39:18:6c:be:b3:ad:84:9f:23:3c:69:42:8f:09:7f:2e:
         ef:c8:fe:be:76:58:30:6f:a3:f7:90:66:fb:31:5b:15:15:90:
         18:05:4b:09:04:5c:d3:ff:e9:45:39:4a:84:3f:51:90:f5:e8:
         d8:34
-----BEGIN CERTIFICATE-----
MIIC0TCCAjqgAwIBAgICAR4wDQYJKoZIhvcNAQEFBQAwdzELMAkGA1UEBhMCY24x
DTALBgNVBAgMBHRlc3QxDTALBgNVBAcMBHRlc3QxDTALBgNVBAoMBHRlc3QxDTAL
BgNVBAsMBHRlc3QxDTALBgNVBAMMBHRlc3QxHTAbBgkqhkiG9w0BCQEWDnRlc3RA
dGVzdC50ZXN0MB4XDTEyMTAwNTE0MDgyMFoXDTEzMTAwNTE0MDgyMFowaDELMAkG
A1UEBhMCY24xDTALBgNVBAgMBHRlc3QxDTALBgNVBAoMBHRlc3QxDTALBgNVBAsM
BHRlc3QxDTALBgNVBAMMBHRlc3QxHTAbBgkqhkiG9w0BCQEWDnRlc3RAdGVzdC50
ZXN0MIGfMA0GCSqGSIb3DQEBAQUAA4GNADCBiQKBgQDB7dyby9lhvyrE9Vw4Qjbf
Ji8Bfm23YspSk76zH8X6W52JtgcQfvDc02BGri8YkwvZovU1l2JfYJFfC9Qmznwh
ZPsegBrfeV16Qp3EWIHVZQCI+eu2vScnDpl/vuUfvGH3+VN4Wd0CwtazYxIw+8TV
qIDhd8R2gA+OQkBk+/iQDwIDAQABo3sweTAJBgNVHRMEAjAAMCwGCWCGSAGG+EIB
DQQfFh1PcGVuU1NMIEdlbmVyYXRlZCBDZXJ0aWZpY2F0ZTAdBgNVHQ4EFgQUxgDV
TIMx5OnT5KKNjKI3KMqZJCkwHwYDVR0jBBgwFoAU5Eic1DXjWAfdus7B2dsPSbv9
AhgwDQYJKoZIhvcNAQEFBQADgYEAhzsdal+KPSmJ9SQHpwSDAtuFyP2lq3mS9bPM
Bqq06bigyIpInR3V4XG9FkL9gA+d+UrBBISudSjQnff3MH59l/Qdh2wG4Aev6jY5
GGy+s62EnyM8aUKPCX8u78j+vnZYMG+j95Bm+zFbFRWQGAVLCQRc0//pRTlKhD9R
kPXo2DQ=
-----END CERTIFICATE-----
